; Function Attrs: mustprogress nofree norecurse nosync nounwind willreturn memory(argmem: readwrite) uwtable
define dso_local void @_ZN4llvm16AArch64InstrInfo35decomposeStackOffsetForDwarfOffsetsERKNS_11StackOffsetERlS4_(ptr nocapture noundef nonnull readonly align 8 dereferenceable(16) %0, ptr nocapture noundef nonnull writeonly align 8 dereferenceable(8) %1, ptr nocapture noundef nonnull writeonly align 8 dereferenceable(8) %2) local_unnamed_addr #14 align 2 {
  %4 = load i64, ptr %0, align 8
  store i64 %4, ptr %1, align 8
  %5 = getelementptr inbounds nuw i8, ptr %0, i64 8
  %6 = load i64, ptr %5, align 8
  %7 = sdiv i64 %6, 2
  store i64 %7, ptr %2, align 8
  ret void
}